target datalayout = "e-m:e-p270:32:32-p271:32:32-p272:64:64-i64:64-i128:128-f80:128-n8:16:32:64-S128"
target triple = "x86_64-pc-linux-gnu"

%struct.cache_bin_info_s = type { i16 }
%struct.tcache_slow_s = type { %struct.anon, %struct.cache_bin_array_descriptor_s, ptr, i32, i32, [36 x i8], [36 x i8], [36 x i8], ptr, ptr }
%struct.anon = type { ptr, ptr }
%struct.cache_bin_array_descriptor_s = type { %struct.anon.0, ptr }
%struct.anon.0 = type { ptr, ptr }
%struct.tcache_s = type { ptr, [73 x %struct.cache_bin_s] }
%struct.cache_bin_s = type { ptr, %struct.cache_bin_stats_s, i16, i16, i16, %struct.cache_bin_info_s }
%struct.cache_bin_stats_s = type { i64 }

@duckdb_je_opt_tcache_gc_delay_bytes = global i64 0, align 8
@duckdb_je_sz_index2size_tab = external global [232 x i64], align 16

; Function Attrs: alwaysinline nounwind uwtable
define internal i64 @sz_index2size_lookup_impl(i32 noundef %0) #1 {
  %2 = alloca i32, align 4
  store i32 %0, ptr %2, align 4, !tbaa !29
  %3 = load i32, ptr %2, align 4, !tbaa !29
  %4 = zext i32 %3 to i64
  %5 = getelementptr inbounds nuw [232 x i64], ptr @duckdb_je_sz_index2size_tab, i64 0, i64 %4
  %6 = load i64, ptr %5, align 8, !tbaa !15
  ret i64 %6
}

; Function Attrs: alwaysinline nounwind uwtable
define internal i64 @sz_index2size_lookup(i32 noundef %0) #1 {
  %2 = alloca i32, align 4
  %3 = alloca i64, align 8
  store i32 %0, ptr %2, align 4, !tbaa !29
  call void @llvm.lifetime.start.p0(i64 8, ptr %3) #13
  %4 = load i32, ptr %2, align 4, !tbaa !29
  %5 = call i64 @sz_index2size_lookup_impl(i32 noundef %4)
  store i64 %5, ptr %3, align 8, !tbaa !15
  br label %6

6:                                                ; preds = %1
  br label %7

7:                                                ; preds = %6
  br label %8

8:                                                ; preds = %7
  %9 = load i64, ptr %3, align 8, !tbaa !15
  call void @llvm.lifetime.end.p0(i64 8, ptr %3) #13
  ret i64 %9
}

; Function Attrs: alwaysinline nounwind uwtable
define internal i64 @sz_index2size(i32 noundef %0) #1 {
  %2 = alloca i32, align 4
  store i32 %0, ptr %2, align 4, !tbaa !29
  br label %3

3:                                                ; preds = %1
  br label %4

4:                                                ; preds = %3
  %5 = load i32, ptr %2, align 4, !tbaa !29
  %6 = call i64 @sz_index2size_lookup(i32 noundef %5)
  ret i64 %6
}

; Function Attrs: nounwind uwtable
define internal zeroext i8 @tcache_gc_item_delay_compute(i32 noundef %0) #0 {
  %2 = alloca i32, align 4
  %3 = alloca i64, align 8
  %4 = alloca i64, align 8
  %5 = alloca i64, align 8
  store i32 %0, ptr %2, align 4, !tbaa !29
  br label %6

6:                                                ; preds = %1
  br label %7

7:                                                ; preds = %6
  call void @llvm.lifetime.start.p0(i64 8, ptr %3) #13
  %8 = load i32, ptr %2, align 4, !tbaa !29
  %9 = call i64 @sz_index2size(i32 noundef %8)
  store i64 %9, ptr %3, align 8, !tbaa !15
  call void @llvm.lifetime.start.p0(i64 8, ptr %4) #13
  %10 = load i64, ptr @duckdb_je_opt_tcache_gc_delay_bytes, align 8, !tbaa !15
  %11 = load i64, ptr %3, align 8, !tbaa !15
  %12 = udiv i64 %10, %11
  store i64 %12, ptr %4, align 8, !tbaa !15
  call void @llvm.lifetime.start.p0(i64 8, ptr %5) #13
  store i64 256, ptr %5, align 8, !tbaa !15
  %13 = load i64, ptr %4, align 8, !tbaa !15
  %14 = load i64, ptr %5, align 8, !tbaa !15
  %15 = icmp uge i64 %13, %14
  br i1 %15, label %16, label %19

16:                                               ; preds = %7
  %17 = load i64, ptr %5, align 8, !tbaa !15
  %18 = sub i64 %17, 1
  store i64 %18, ptr %4, align 8, !tbaa !15
  br label %19

19:                                               ; preds = %16, %7
  %20 = load i64, ptr %4, align 8, !tbaa !15
  %21 = trunc i64 %20 to i8
  call void @llvm.lifetime.end.p0(i64 8, ptr %5) #13
  call void @llvm.lifetime.end.p0(i64 8, ptr %4) #13
  call void @llvm.lifetime.end.p0(i64 8, ptr %3) #13
  ret i8 %21
}

; Function Attrs: inlinehint nounwind uwtable
define internal i32 @tcache_nbins_get(ptr noundef %0) #3 {
  %2 = alloca ptr, align 8
  %3 = alloca i32, align 4
  store ptr %0, ptr %2, align 8, !tbaa !19
  br label %4

4:                                                ; preds = %1
  br label %5

5:                                                ; preds = %4
  call void @llvm.lifetime.start.p0(i64 4, ptr %3) #13
  %6 = load ptr, ptr %2, align 8, !tbaa !19
  %7 = getelementptr inbounds nuw %struct.tcache_slow_s, ptr %6, i32 0, i32 3
  %8 = load i32, ptr %7, align 8, !tbaa !115
  store i32 %8, ptr %3, align 4, !tbaa !29
  br label %9

9:                                                ; preds = %5
  br label %10

10:                                               ; preds = %9
  br label %11

11:                                               ; preds = %10
  %12 = load i32, ptr %3, align 4, !tbaa !29
  call void @llvm.lifetime.end.p0(i64 4, ptr %3) #13
  ret i32 %12
}

; Function Attrs: nounwind uwtable
define internal void @tcache_init(ptr noundef %0, ptr noundef %1, ptr noundef %2, ptr noundef %3, ptr noundef %4) #0 {
  %6 = alloca ptr, align 8
  %7 = alloca ptr, align 8
  %8 = alloca ptr, align 8
  %9 = alloca ptr, align 8
  %10 = alloca ptr, align 8
  %11 = alloca i32, align 4
  %12 = alloca i64, align 8
  %13 = alloca i32, align 4
  %14 = alloca ptr, align 8
  %15 = alloca i32, align 4
  %16 = alloca ptr, align 8
  store ptr %0, ptr %6, align 8, !tbaa !13
  store ptr %1, ptr %7, align 8, !tbaa !19
  store ptr %2, ptr %8, align 8, !tbaa !17
  store ptr %3, ptr %9, align 8, !tbaa !8
  store ptr %4, ptr %10, align 8, !tbaa !116
  %17 = load ptr, ptr %7, align 8, !tbaa !19
  %18 = load ptr, ptr %8, align 8, !tbaa !17
  %19 = getelementptr inbounds nuw %struct.tcache_s, ptr %18, i32 0, i32 0
  store ptr %17, ptr %19, align 8, !tbaa !40
  %20 = load ptr, ptr %8, align 8, !tbaa !17
  %21 = load ptr, ptr %7, align 8, !tbaa !19
  %22 = getelementptr inbounds nuw %struct.tcache_slow_s, ptr %21, i32 0, i32 9
  store ptr %20, ptr %22, align 8, !tbaa !114
  %23 = load ptr, ptr %7, align 8, !tbaa !19
  %24 = getelementptr inbounds nuw %struct.tcache_slow_s, ptr %23, i32 0, i32 0
  call void @llvm.memset.p0.i64(ptr align 8 %24, i8 0, i64 16, i1 false)
  %25 = load ptr, ptr %7, align 8, !tbaa !19
  %26 = getelementptr inbounds nuw %struct.tcache_slow_s, ptr %25, i32 0, i32 4
  store i32 0, ptr %26, align 4, !tbaa !21
  %27 = load ptr, ptr %7, align 8, !tbaa !19
  %28 = getelementptr inbounds nuw %struct.tcache_slow_s, ptr %27, i32 0, i32 2
  store ptr null, ptr %28, align 8, !tbaa !54
  %29 = load ptr, ptr %9, align 8, !tbaa !8
  %30 = load ptr, ptr %7, align 8, !tbaa !19
  %31 = getelementptr inbounds nuw %struct.tcache_slow_s, ptr %30, i32 0, i32 8
  store ptr %29, ptr %31, align 8, !tbaa !118
  call void @llvm.lifetime.start.p0(i64 4, ptr %11) #13
  %32 = load ptr, ptr %7, align 8, !tbaa !19
  %33 = call i32 @tcache_nbins_get(ptr noundef %32)
  store i32 %33, ptr %11, align 4, !tbaa !29
  call void @llvm.lifetime.start.p0(i64 8, ptr %12) #13
  store i64 0, ptr %12, align 8, !tbaa !15
  %34 = load ptr, ptr %10, align 8, !tbaa !116
  %35 = load i32, ptr %11, align 4, !tbaa !29
  %36 = load ptr, ptr %9, align 8, !tbaa !8
  call void @duckdb_je_cache_bin_preincrement(ptr noundef %34, i32 noundef %35, ptr noundef %36, ptr noundef %12)
  call void @llvm.lifetime.start.p0(i64 4, ptr %13) #13
  store i32 0, ptr %13, align 4, !tbaa !29
  br label %37

37:                                               ; preds = %94, %5
  %38 = load i32, ptr %13, align 4, !tbaa !29
  %39 = load i32, ptr %11, align 4, !tbaa !29
  %40 = icmp ult i32 %38, %39
  br i1 %40, label %42, label %41

41:                                               ; preds = %37
  call void @llvm.lifetime.end.p0(i64 4, ptr %13) #13
  br label %97

42:                                               ; preds = %37
  %43 = load i32, ptr %13, align 4, !tbaa !29
  %44 = zext i32 %43 to i64
  %45 = icmp ult i64 %44, 36
  br i1 %45, label %46, label %64

46:                                               ; preds = %42
  %47 = load ptr, ptr %7, align 8, !tbaa !19
  %48 = getelementptr inbounds nuw %struct.tcache_slow_s, ptr %47, i32 0, i32 5
  %49 = load i32, ptr %13, align 4, !tbaa !29
  %50 = zext i32 %49 to i64
  %51 = getelementptr inbounds nuw [36 x i8], ptr %48, i64 0, i64 %50
  store i8 1, ptr %51, align 1, !tbaa !36
  %52 = load ptr, ptr %7, align 8, !tbaa !19
  %53 = getelementptr inbounds nuw %struct.tcache_slow_s, ptr %52, i32 0, i32 6
  %54 = load i32, ptr %13, align 4, !tbaa !29
  %55 = zext i32 %54 to i64
  %56 = getelementptr inbounds nuw [36 x i8], ptr %53, i64 0, i64 %55
  store i8 0, ptr %56, align 1, !tbaa !30
  %57 = load i32, ptr %13, align 4, !tbaa !29
  %58 = call zeroext i8 @tcache_gc_item_delay_compute(i32 noundef %57)
  %59 = load ptr, ptr %7, align 8, !tbaa !19
  %60 = getelementptr inbounds nuw %struct.tcache_slow_s, ptr %59, i32 0, i32 7
  %61 = load i32, ptr %13, align 4, !tbaa !29
  %62 = zext i32 %61 to i64
  %63 = getelementptr inbounds nuw [36 x i8], ptr %60, i64 0, i64 %62
  store i8 %58, ptr %63, align 1, !tbaa !36
  br label %64

64:                                               ; preds = %46, %42
  call void @llvm.lifetime.start.p0(i64 8, ptr %14) #13
  %65 = load ptr, ptr %8, align 8, !tbaa !17
  %66 = getelementptr inbounds nuw %struct.tcache_s, ptr %65, i32 0, i32 1
  %67 = load i32, ptr %13, align 4, !tbaa !29
  %68 = zext i32 %67 to i64
  %69 = getelementptr inbounds nuw [73 x %struct.cache_bin_s], ptr %66, i64 0, i64 %68
  store ptr %69, ptr %14, align 8, !tbaa !31
  %70 = load ptr, ptr %10, align 8, !tbaa !116
  %71 = load i32, ptr %13, align 4, !tbaa !29
  %72 = zext i32 %71 to i64
  %73 = getelementptr inbounds nuw %struct.cache_bin_info_s, ptr %70, i64 %72
  %74 = getelementptr inbounds nuw %struct.cache_bin_info_s, ptr %73, i32 0, i32 0
  %75 = load i16, ptr %74, align 2, !tbaa !119
  %76 = zext i16 %75 to i32
  %77 = icmp sgt i32 %76, 0
  br i1 %77, label %78, label %85

78:                                               ; preds = %64
  %79 = load ptr, ptr %14, align 8, !tbaa !31
  %80 = load ptr, ptr %10, align 8, !tbaa !116
  %81 = load i32, ptr %13, align 4, !tbaa !29
  %82 = zext i32 %81 to i64
  %83 = getelementptr inbounds nuw %struct.cache_bin_info_s, ptr %80, i64 %82
  %84 = load ptr, ptr %9, align 8, !tbaa !8
  call void @duckdb_je_cache_bin_init(ptr noundef %79, ptr noundef %83, ptr noundef %84, ptr noundef %12)
  br label %93

85:                                               ; preds = %64
  %86 = load ptr, ptr %14, align 8, !tbaa !31
  %87 = load ptr, ptr %10, align 8, !tbaa !116
  %88 = load i32, ptr %13, align 4, !tbaa !29
  %89 = zext i32 %88 to i64
  %90 = getelementptr inbounds nuw %struct.cache_bin_info_s, ptr %87, i64 %89
  %91 = getelementptr inbounds nuw %struct.cache_bin_info_s, ptr %90, i32 0, i32 0
  %92 = load i16, ptr %91, align 2, !tbaa !119
  call void @cache_bin_init_disabled(ptr noundef %86, i16 noundef zeroext %92)
  br label %93

93:                                               ; preds = %85, %78
  call void @llvm.lifetime.end.p0(i64 8, ptr %14) #13
  br label %94

94:                                               ; preds = %93
  %95 = load i32, ptr %13, align 4, !tbaa !29
  %96 = add i32 %95, 1
  store i32 %96, ptr %13, align 4, !tbaa !29
  br label %37

97:                                               ; preds = %41
  call void @llvm.lifetime.start.p0(i64 4, ptr %15) #13
  %98 = load i32, ptr %11, align 4, !tbaa !29
  store i32 %98, ptr %15, align 4, !tbaa !29
  br label %99

99:                                               ; preds = %120, %97
  %100 = load i32, ptr %15, align 4, !tbaa !29
  %101 = zext i32 %100 to i64
  %102 = icmp ult i64 %101, 73
  br i1 %102, label %104, label %103

103:                                              ; preds = %99
  call void @llvm.lifetime.end.p0(i64 4, ptr %15) #13
  br label %123

104:                                              ; preds = %99
  call void @llvm.lifetime.start.p0(i64 8, ptr %16) #13
  %105 = load ptr, ptr %8, align 8, !tbaa !17
  %106 = getelementptr inbounds nuw %struct.tcache_s, ptr %105, i32 0, i32 1
  %107 = load i32, ptr %15, align 4, !tbaa !29
  %108 = zext i32 %107 to i64
  %109 = getelementptr inbounds nuw [73 x %struct.cache_bin_s], ptr %106, i64 0, i64 %108
  store ptr %109, ptr %16, align 8, !tbaa !31
  %110 = load ptr, ptr %16, align 8, !tbaa !31
  %111 = load ptr, ptr %10, align 8, !tbaa !116
  %112 = load i32, ptr %15, align 4, !tbaa !29
  %113 = zext i32 %112 to i64
  %114 = getelementptr inbounds nuw %struct.cache_bin_info_s, ptr %111, i64 %113
  %115 = getelementptr inbounds nuw %struct.cache_bin_info_s, ptr %114, i32 0, i32 0
  %116 = load i16, ptr %115, align 2, !tbaa !119
  call void @cache_bin_init_disabled(ptr noundef %110, i16 noundef zeroext %116)
  br label %117

117:                                              ; preds = %104
  br label %118

118:                                              ; preds = %117
  br label %119

119:                                              ; preds = %118
  call void @llvm.lifetime.end.p0(i64 8, ptr %16) #13
  br label %120

120:                                              ; preds = %119
  %121 = load i32, ptr %15, align 4, !tbaa !29
  %122 = add i32 %121, 1
  store i32 %122, ptr %15, align 4, !tbaa !29
  br label %99

123:                                              ; preds = %103
  %124 = load ptr, ptr %9, align 8, !tbaa !8
  call void @duckdb_je_cache_bin_postincrement(ptr noundef %124, ptr noundef %12)
  call void @llvm.lifetime.end.p0(i64 8, ptr %12) #13
  call void @llvm.lifetime.end.p0(i64 4, ptr %11) #13
  ret void
}