; Function Attrs: nounwind uwtable
define internal fastcc void @tcache_init(ptr noundef %0, ptr noundef initializes((0, 8)) %1, ptr noundef nonnull %2, ptr noundef %3) unnamed_addr #0 {
  %5 = alloca i64, align 8
  store ptr %0, ptr %1, align 8, !tbaa !42
  %6 = getelementptr inbounds nuw i8, ptr %0, i64 176
  store ptr %1, ptr %6, align 8, !tbaa !137
  tail call void @llvm.memset.p0.i64(ptr noundef nonnull align 8 dereferenceable(16) %0, i8 0, i64 16, i1 false)
  %7 = getelementptr inbounds nuw i8, ptr %0, i64 52
  store i32 0, ptr %7, align 4, !tbaa !21
  %8 = getelementptr inbounds nuw i8, ptr %0, i64 40
  store ptr null, ptr %8, align 8, !tbaa !45
  %9 = getelementptr inbounds nuw i8, ptr %0, i64 168
  store ptr %2, ptr %9, align 8, !tbaa !149
  %10 = getelementptr i8, ptr %0, i64 48
  %.val = load i32, ptr %10, align 8, !tbaa !41
  call void @llvm.lifetime.start.p0(i64 8, ptr nonnull %5) #16
  store i64 0, ptr %5, align 8, !tbaa !16
  call void @duckdb_je_cache_bin_preincrement(ptr noundef %3, i32 noundef %.val, ptr noundef nonnull %2, ptr noundef nonnull %5) #16
  %.not4 = icmp eq i32 %.val, 0
  br i1 %.not4, label %.lr.ph3, label %.lr.ph

.lr.ph:                                           ; preds = %4
  %11 = getelementptr inbounds nuw i8, ptr %0, i64 56
  %12 = getelementptr inbounds nuw i8, ptr %0, i64 92
  %13 = getelementptr inbounds nuw i8, ptr %0, i64 128
  %14 = getelementptr inbounds nuw i8, ptr %1, i64 8
  %wide.trip.count = zext i32 %.val to i64
  br label %18

.preheader:                                       ; preds = %35
  %15 = icmp ult i32 %.val, 73
  br i1 %15, label %.lr.ph3, label %._crit_edge

.lr.ph3:                                          ; preds = %4, %.preheader
  %16 = getelementptr inbounds nuw i8, ptr %1, i64 8
  %17 = zext nneg i32 %.val to i64
  br label %36

18:                                               ; preds = %.lr.ph, %35
  %indvars.iv = phi i64 [ 0, %.lr.ph ], [ %indvars.iv.next, %35 ]
  %19 = icmp samesign ult i64 %indvars.iv, 36
  br i1 %19, label %20, label %29

20:                                               ; preds = %18
  %21 = getelementptr inbounds nuw [36 x i8], ptr %11, i64 0, i64 %indvars.iv
  store i8 1, ptr %21, align 1, !tbaa !39
  %22 = getelementptr inbounds nuw [36 x i8], ptr %12, i64 0, i64 %indvars.iv
  store i8 0, ptr %22, align 1, !tbaa !17
  %23 = getelementptr inbounds nuw [232 x i64], ptr @duckdb_je_sz_index2size_tab, i64 0, i64 %indvars.iv
  %24 = load i64, ptr %23, align 8, !tbaa !16
  %25 = load i64, ptr @duckdb_je_opt_tcache_gc_delay_bytes, align 8, !tbaa !16
  %26 = udiv i64 %25, %24
  %spec.select.i = call i64 @llvm.umin.i64(i64 %26, i64 255)
  %27 = trunc nuw i64 %spec.select.i to i8
  %28 = getelementptr inbounds nuw [36 x i8], ptr %13, i64 0, i64 %indvars.iv
  store i8 %27, ptr %28, align 1, !tbaa !39
  br label %29

29:                                               ; preds = %20, %18
  %30 = getelementptr inbounds nuw [73 x %struct.cache_bin_s], ptr %14, i64 0, i64 %indvars.iv
  %31 = getelementptr inbounds nuw %struct.cache_bin_info_s, ptr %3, i64 %indvars.iv
  %32 = load i16, ptr %31, align 2, !tbaa !150
  %.not = icmp eq i16 %32, 0
  br i1 %.not, label %34, label %33

33:                                               ; preds = %29
  call void @duckdb_je_cache_bin_init(ptr noundef nonnull %30, ptr noundef nonnull %31, ptr noundef nonnull %2, ptr noundef nonnull %5) #16
  br label %35

34:                                               ; preds = %29
  call void @cache_bin_init_disabled(ptr noundef nonnull %30, i16 noundef zeroext 0) #16
  br label %35

35:                                               ; preds = %34, %33
  %indvars.iv.next = add nuw nsw i64 %indvars.iv, 1
  %exitcond.not = icmp eq i64 %indvars.iv.next, %wide.trip.count
  br i1 %exitcond.not, label %.preheader, label %18

._crit_edge:                                      ; preds = %36, %.preheader
  call void @duckdb_je_cache_bin_postincrement(ptr noundef nonnull %2, ptr noundef nonnull %5) #16
  call void @llvm.lifetime.end.p0(i64 8, ptr nonnull %5) #16
  ret void

36:                                               ; preds = %.lr.ph3, %36
  %indvars.iv6 = phi i64 [ %17, %.lr.ph3 ], [ %indvars.iv.next7, %36 ]
  %37 = getelementptr inbounds nuw [73 x %struct.cache_bin_s], ptr %16, i64 0, i64 %indvars.iv6
  %38 = getelementptr inbounds nuw %struct.cache_bin_info_s, ptr %3, i64 %indvars.iv6
  %39 = load i16, ptr %38, align 2, !tbaa !150
  call void @cache_bin_init_disabled(ptr noundef nonnull %37, i16 noundef zeroext %39) #16
  %indvars.iv.next7 = add nuw nsw i64 %indvars.iv6, 1
  %40 = and i64 %indvars.iv.next7, 4294967295
  %exitcond9.not = icmp eq i64 %40, 73
  br i1 %exitcond9.not, label %._crit_edge, label %36
}